(dp1
S'failed'
p2
(lp3
S'1'
aS'2'
aS'7'
asS'source_names'
p4
(lp5
S'.'
asS'ids'
p6
(dp7
I1
(S'/home/matteo/.qgis2/python/plugins/DataPlot/test/test_data_plot_dialog.py'
S'DataPlot.test.test_data_plot_dialog'
p8
S'DataPlotDialogTest.test_dialog_cancel'
tp9
sI2
(S'/home/matteo/.qgis2/python/plugins/DataPlot/test/test_data_plot_dialog.py'
g8
S'DataPlotDialogTest.test_dialog_ok'
tp10
sI3
(S'/home/matteo/.qgis2/python/plugins/DataPlot/test/test_init.py'
S'DataPlot.test.test_init'
S'TestInit.test_read_init'
tp11
sI4
(S'/home/matteo/.qgis2/python/plugins/DataPlot/test/test_qgis_environment.py'
S'DataPlot.test.test_qgis_environment'
p12
S'QGISTest.test_projection'
tp13
sI5
(S'/home/matteo/.qgis2/python/plugins/DataPlot/test/test_qgis_environment.py'
g12
S'QGISTest.test_qgis_environment'
tp14
sI6
(S'/home/matteo/.qgis2/python/plugins/DataPlot/test/test_resources.py'
S'DataPlot.test.test_resources'
S'DataPlotDialogTest.test_icon_png'
tp15
sI7
(S'/home/matteo/.qgis2/python/plugins/DataPlot/test/test_translations.py'
S'DataPlot.test.test_translations'
S'SafeTranslationsTest.test_qgis_translations'
tp16
ss.